target datalayout = "e-m:e-p270:32:32-p271:32:32-p272:64:64-i64:64-i128:128-f80:128-n8:16:32:64-S128"
target triple = "x86_64-pc-linux-gnu"

%struct._packet_info = type { ptr, ptr, i32, i32, %struct.nstime_t, %struct.nstime_t, %struct.nstime_t, i8, ptr, ptr, ptr, ptr, %struct._address, %struct._address, %struct._address, %struct._address, %struct._address, %struct._address, i32, ptr, i8, [3 x i8], %struct.anon, i32, i32, i32, i32, ptr, i8, ptr, ptr, i16, i16, i32, i32, i16, i32, i32, ptr, ptr, ptr, i8, i8, i16, i16, i16, i32, i16, i16, ptr, ptr, ptr, ptr, ptr, i32, i32 }
%struct.nstime_t = type { i64, i32 }
%struct._address = type { i32, i32, ptr, ptr }
%struct.anon = type { i8, [3 x i8] }

@hf_oml_fom_msgtype = internal global i32 0, align 4
@hf_oml_fom_objclass = internal global i32 0, align 4
@hf_oml_fom_inst_bts = internal global i32 0, align 4
@hf_oml_fom_inst_trx = internal global i32 0, align 4
@hf_oml_fom_inst_ts = internal global i32 0, align 4
@ett_oml_fom = internal global i32 0, align 4
@.str.704 = private unnamed_addr constant [25 x i8] c", %s(%02x,%02x,%02x) %s \00", align 1
@.str.705 = private unnamed_addr constant [5 x i8] c"%02x\00", align 1
@.str.706 = private unnamed_addr constant [23 x i8] c"%s(%02x,%02x,%02x) %s \00", align 1

; Function Attrs: null_pointer_is_valid sspstrong uwtable
define internal i32 @dissect_oml_fom(ptr noundef %0, ptr noundef %1, ptr noundef %2, i32 noundef %3, ptr noundef %4) #0 {
  %6 = alloca ptr, align 8
  %7 = alloca ptr, align 8
  %8 = alloca ptr, align 8
  %9 = alloca i32, align 4
  %10 = alloca ptr, align 8
  %11 = alloca i8, align 1
  %12 = alloca i8, align 1
  %13 = alloca i8, align 1
  %14 = alloca i8, align 1
  %15 = alloca i8, align 1
  %16 = alloca ptr, align 8
  %17 = alloca ptr, align 8
  %18 = alloca [240 x i8], align 16
  store ptr %0, ptr %6, align 8
  store ptr %1, ptr %7, align 8
  store ptr %2, ptr %8, align 8
  store i32 %3, ptr %9, align 4
  store ptr %4, ptr %10, align 8
  call void @llvm.lifetime.start.p0(i64 1, ptr %11) #5
  call void @llvm.lifetime.start.p0(i64 1, ptr %12) #5
  call void @llvm.lifetime.start.p0(i64 1, ptr %13) #5
  call void @llvm.lifetime.start.p0(i64 1, ptr %14) #5
  call void @llvm.lifetime.start.p0(i64 1, ptr %15) #5
  call void @llvm.lifetime.start.p0(i64 8, ptr %16) #5
  call void @llvm.lifetime.start.p0(i64 8, ptr %17) #5
  call void @llvm.lifetime.start.p0(i64 240, ptr %18) #5
  %19 = load ptr, ptr %6, align 8
  %20 = load i32, ptr %9, align 4
  %21 = call zeroext i8 @tvb_get_uint8(ptr noundef %19, i32 noundef %20)
  store i8 %21, ptr %11, align 1
  %22 = load ptr, ptr %6, align 8
  %23 = load i32, ptr %9, align 4
  %24 = add i32 %23, 1
  %25 = call zeroext i8 @tvb_get_uint8(ptr noundef %22, i32 noundef %24)
  store i8 %25, ptr %12, align 1
  %26 = load ptr, ptr %6, align 8
  %27 = load i32, ptr %9, align 4
  %28 = add i32 %27, 2
  %29 = call zeroext i8 @tvb_get_uint8(ptr noundef %26, i32 noundef %28)
  store i8 %29, ptr %13, align 1
  %30 = load ptr, ptr %6, align 8
  %31 = load i32, ptr %9, align 4
  %32 = add i32 %31, 3
  %33 = call zeroext i8 @tvb_get_uint8(ptr noundef %30, i32 noundef %32)
  store i8 %33, ptr %14, align 1
  %34 = load ptr, ptr %6, align 8
  %35 = load i32, ptr %9, align 4
  %36 = add i32 %35, 4
  %37 = call zeroext i8 @tvb_get_uint8(ptr noundef %34, i32 noundef %36)
  store i8 %37, ptr %15, align 1
  %38 = getelementptr inbounds [240 x i8], ptr %18, i64 0, i64 0
  %39 = load i8, ptr %11, align 1
  %40 = zext i8 %39 to i32
  call void @format_custom_msgtype(ptr noundef %38, i32 noundef %40)
  %41 = load ptr, ptr %10, align 8
  %42 = load i8, ptr %12, align 1
  %43 = zext i8 %42 to i32
  %44 = call ptr @val_to_str(i32 noundef %43, ptr noundef @oml_fom_objclass_vals, ptr noundef @.str.705)
  %45 = load i8, ptr %13, align 1
  %46 = zext i8 %45 to i32
  %47 = load i8, ptr %14, align 1
  %48 = zext i8 %47 to i32
  %49 = load i8, ptr %15, align 1
  %50 = zext i8 %49 to i32
  %51 = getelementptr inbounds [240 x i8], ptr %18, i64 0, i64 0
  call void (ptr, ptr, ...) @proto_item_append_text(ptr noundef %41, ptr noundef @.str.704, ptr noundef %44, i32 noundef %46, i32 noundef %48, i32 noundef %50, ptr noundef %51)
  %52 = load ptr, ptr %7, align 8
  %53 = getelementptr inbounds nuw %struct._packet_info, ptr %52, i32 0, i32 1
  %54 = load ptr, ptr %53, align 8
  %55 = load i8, ptr %12, align 1
  %56 = zext i8 %55 to i32
  %57 = call ptr @val_to_str(i32 noundef %56, ptr noundef @oml_fom_objclass_vals, ptr noundef @.str.705)
  %58 = load i8, ptr %13, align 1
  %59 = zext i8 %58 to i32
  %60 = load i8, ptr %14, align 1
  %61 = zext i8 %60 to i32
  %62 = load i8, ptr %15, align 1
  %63 = zext i8 %62 to i32
  %64 = getelementptr inbounds [240 x i8], ptr %18, i64 0, i64 0
  call void (ptr, i32, ptr, ...) @col_append_fstr(ptr noundef %54, i32 noundef 25, ptr noundef @.str.706, ptr noundef %57, i32 noundef %59, i32 noundef %61, i32 noundef %63, ptr noundef %64)
  %65 = load ptr, ptr %8, align 8
  %66 = load i32, ptr @hf_oml_fom_msgtype, align 4
  %67 = load ptr, ptr %6, align 8
  %68 = load i32, ptr %9, align 4
  %69 = add i32 %68, 1
  store i32 %69, ptr %9, align 4
  %70 = call ptr @proto_tree_add_item(ptr noundef %65, i32 noundef %66, ptr noundef %67, i32 noundef %68, i32 noundef 1, i32 noundef 0)
  store ptr %70, ptr %16, align 8
  %71 = load ptr, ptr %16, align 8
  %72 = load i32, ptr @ett_oml_fom, align 4
  %73 = call ptr @proto_item_add_subtree(ptr noundef %71, i32 noundef %72)
  store ptr %73, ptr %17, align 8
  %74 = load ptr, ptr %17, align 8
  %75 = load i32, ptr @hf_oml_fom_objclass, align 4
  %76 = load ptr, ptr %6, align 8
  %77 = load i32, ptr %9, align 4
  %78 = add i32 %77, 1
  store i32 %78, ptr %9, align 4
  %79 = call ptr @proto_tree_add_item(ptr noundef %74, i32 noundef %75, ptr noundef %76, i32 noundef %77, i32 noundef 1, i32 noundef 0)
  %80 = load ptr, ptr %17, align 8
  %81 = load i32, ptr @hf_oml_fom_inst_bts, align 4
  %82 = load ptr, ptr %6, align 8
  %83 = load i32, ptr %9, align 4
  %84 = add i32 %83, 1
  store i32 %84, ptr %9, align 4
  %85 = call ptr @proto_tree_add_item(ptr noundef %80, i32 noundef %81, ptr noundef %82, i32 noundef %83, i32 noundef 1, i32 noundef 0)
  %86 = load ptr, ptr %17, align 8
  %87 = load i32, ptr @hf_oml_fom_inst_trx, align 4
  %88 = load ptr, ptr %6, align 8
  %89 = load i32, ptr %9, align 4
  %90 = add i32 %89, 1
  store i32 %90, ptr %9, align 4
  %91 = call ptr @proto_tree_add_item(ptr noundef %86, i32 noundef %87, ptr noundef %88, i32 noundef %89, i32 noundef 1, i32 noundef 0)
  %92 = load ptr, ptr %17, align 8
  %93 = load i32, ptr @hf_oml_fom_inst_ts, align 4
  %94 = load ptr, ptr %6, align 8
  %95 = load i32, ptr %9, align 4
  %96 = add i32 %95, 1
  store i32 %96, ptr %9, align 4
  %97 = call ptr @proto_tree_add_item(ptr noundef %92, i32 noundef %93, ptr noundef %94, i32 noundef %95, i32 noundef 1, i32 noundef 0)
  %98 = load ptr, ptr %6, align 8
  %99 = load i32, ptr %9, align 4
  %100 = load ptr, ptr %6, align 8
  %101 = load i32, ptr %9, align 4
  %102 = call i32 @tvb_reported_length_remaining(ptr noundef %100, i32 noundef %101)
  %103 = load ptr, ptr %7, align 8
  %104 = load ptr, ptr %17, align 8
  %105 = call i32 @dissect_oml_attrs(ptr noundef %98, i32 noundef %99, i32 noundef %102, ptr noundef %103, ptr noundef %104)
  store i32 %105, ptr %9, align 4
  %106 = load i32, ptr %9, align 4
  call void @llvm.lifetime.end.p0(i64 240, ptr %18) #5
  call void @llvm.lifetime.end.p0(i64 8, ptr %17) #5
  call void @llvm.lifetime.end.p0(i64 8, ptr %16) #5
  call void @llvm.lifetime.end.p0(i64 1, ptr %15) #5
  call void @llvm.lifetime.end.p0(i64 1, ptr %14) #5
  call void @llvm.lifetime.end.p0(i64 1, ptr %13) #5
  call void @llvm.lifetime.end.p0(i64 1, ptr %12) #5
  call void @llvm.lifetime.end.p0(i64 1, ptr %11) #5
  ret i32 %106
}