; Function Attrs: null_pointer_is_valid sspstrong uwtable
define internal fastcc i32 @dissect_oml_fom(ptr noundef %0, ptr noundef %1, ptr noundef %2, i32 noundef %3, ptr noundef %4) unnamed_addr #0 {
  %6 = alloca [240 x i8], align 16
  call void @llvm.lifetime.start.p0(i64 240, ptr nonnull %6) #5
  %7 = tail call zeroext i8 @tvb_get_uint8(ptr noundef %0, i32 noundef %3)
  %8 = add i32 %3, 1
  %9 = tail call zeroext i8 @tvb_get_uint8(ptr noundef %0, i32 noundef %8)
  %10 = add i32 %3, 2
  %11 = tail call zeroext i8 @tvb_get_uint8(ptr noundef %0, i32 noundef %10)
  %12 = add i32 %3, 3
  %13 = tail call zeroext i8 @tvb_get_uint8(ptr noundef %0, i32 noundef %12)
  %14 = add i32 %3, 4
  %15 = tail call zeroext i8 @tvb_get_uint8(ptr noundef %0, i32 noundef %14)
  %16 = zext i8 %7 to i32
  call void @format_custom_msgtype(ptr noundef nonnull %6, i32 noundef %16)
  %17 = zext i8 %9 to i32
  %18 = call ptr @val_to_str(i32 noundef %17, ptr noundef nonnull @oml_fom_objclass_vals, ptr noundef nonnull @.str.705)
  %19 = zext i8 %11 to i32
  %20 = zext i8 %13 to i32
  %21 = zext i8 %15 to i32
  call void (ptr, ptr, ...) @proto_item_append_text(ptr noundef %4, ptr noundef nonnull @.str.704, ptr noundef %18, i32 noundef %19, i32 noundef %20, i32 noundef %21, ptr noundef nonnull %6)
  %22 = getelementptr inbounds nuw i8, ptr %1, i64 8
  %23 = load ptr, ptr %22, align 8
  %24 = call ptr @val_to_str(i32 noundef %17, ptr noundef nonnull @oml_fom_objclass_vals, ptr noundef nonnull @.str.705)
  call void (ptr, i32, ptr, ...) @col_append_fstr(ptr noundef %23, i32 noundef 25, ptr noundef nonnull @.str.706, ptr noundef %24, i32 noundef %19, i32 noundef %20, i32 noundef %21, ptr noundef nonnull %6)
  %25 = load i32, ptr @hf_oml_fom_msgtype, align 4
  %26 = call ptr @proto_tree_add_item(ptr noundef %2, i32 noundef %25, ptr noundef %0, i32 noundef %3, i32 noundef 1, i32 noundef 0)
  %27 = load i32, ptr @ett_oml_fom, align 4
  %28 = call ptr @proto_item_add_subtree(ptr noundef %26, i32 noundef %27)
  %29 = load i32, ptr @hf_oml_fom_objclass, align 4
  %30 = call ptr @proto_tree_add_item(ptr noundef %28, i32 noundef %29, ptr noundef %0, i32 noundef %8, i32 noundef 1, i32 noundef 0)
  %31 = load i32, ptr @hf_oml_fom_inst_bts, align 4
  %32 = call ptr @proto_tree_add_item(ptr noundef %28, i32 noundef %31, ptr noundef %0, i32 noundef %10, i32 noundef 1, i32 noundef 0)
  %33 = load i32, ptr @hf_oml_fom_inst_trx, align 4
  %34 = call ptr @proto_tree_add_item(ptr noundef %28, i32 noundef %33, ptr noundef %0, i32 noundef %12, i32 noundef 1, i32 noundef 0)
  %35 = load i32, ptr @hf_oml_fom_inst_ts, align 4
  %36 = add i32 %3, 5
  %37 = call ptr @proto_tree_add_item(ptr noundef %28, i32 noundef %35, ptr noundef %0, i32 noundef %14, i32 noundef 1, i32 noundef 0)
  %38 = call i32 @tvb_reported_length_remaining(ptr noundef %0, i32 noundef %36)
  %39 = call fastcc i32 @dissect_oml_attrs(ptr noundef %0, i32 noundef %36, i32 noundef %38, ptr noundef %1, ptr noundef %28)
  call void @llvm.lifetime.end.p0(i64 240, ptr nonnull %6) #5
  ret i32 %39
}